; ModuleID = '1660.cpp'
source_filename = "1660.cpp"
target datalayout = "e-m:e-p270:32:32-p271:32:32-p272:64:64-i64:64-f80:128-n8:16:32:64-S128"
target triple = "x86_64-pc-linux-gnu"

%"class.std::ios_base::Init" = type { i8 }
%"class.std::basic_istream" = type { i32 (...)**, i64, %"class.std::basic_ios" }
%"class.std::basic_ios" = type { %"class.std::ios_base", %"class.std::basic_ostream"*, i8, i8, %"class.std::basic_streambuf"*, %"class.std::ctype"*, %"class.std::num_put"*, %"class.std::num_get"* }
%"class.std::ios_base" = type { i32 (...)**, i64, i64, i32, i32, i32, %"struct.std::ios_base::_Callback_list"*, %"struct.std::ios_base::_Words", [8 x %"struct.std::ios_base::_Words"], i32, %"struct.std::ios_base::_Words"*, %"class.std::locale" }
%"struct.std::ios_base::_Callback_list" = type { %"struct.std::ios_base::_Callback_list"*, void (i32, %"class.std::ios_base"*, i32)*, i32, i32 }
%"struct.std::ios_base::_Words" = type { i8*, i64 }
%"class.std::locale" = type { %"class.std::locale::_Impl"* }
%"class.std::locale::_Impl" = type { i32, %"class.std::locale::facet"**, i64, %"class.std::locale::facet"**, i8** }
%"class.std::locale::facet" = type <{ i32 (...)**, i32, [4 x i8] }>
%"class.std::basic_ostream" = type { i32 (...)**, %"class.std::basic_ios" }
%"class.std::basic_streambuf" = type { i32 (...)**, i8*, i8*, i8*, i8*, i8*, i8*, %"class.std::locale" }
%"class.std::ctype" = type <{ %"class.std::locale::facet.base", [4 x i8], %struct.__locale_struct*, i8, [7 x i8], i32*, i32*, i16*, i8, [256 x i8], [256 x i8], i8, [6 x i8] }>
%"class.std::locale::facet.base" = type <{ i32 (...)**, i32 }>
%struct.__locale_struct = type { [13 x %struct.__locale_data*], i16*, i32*, i32*, [13 x i8*] }
%struct.__locale_data = type opaque
%"class.std::num_put" = type { %"class.std::locale::facet.base", [4 x i8] }
%"class.std::num_get" = type { %"class.std::locale::facet.base", [4 x i8] }

@_ZStL8__ioinit = internal global %"class.std::ios_base::Init" zeroinitializer, align 1
@__dso_handle = external hidden global i8
@_ZSt3cin = external dso_local global %"class.std::basic_istream", align 8
@_ZSt4cout = external dso_local global %"class.std::basic_ostream", align 8
@llvm.global_ctors = appending global [1 x { i32, void ()*, i8* }] [{ i32, void ()*, i8* } { i32 65535, void ()* @_GLOBAL__sub_I_1660.cpp, i8* null }]

; Function Attrs: noinline uwtable
define internal void @__cxx_global_var_init() #0 section ".text.startup" {
  call void @_ZNSt8ios_base4InitC1Ev(%"class.std::ios_base::Init"* @_ZStL8__ioinit)
  %1 = call i32 @__cxa_atexit(void (i8*)* bitcast (void (%"class.std::ios_base::Init"*)* @_ZNSt8ios_base4InitD1Ev to void (i8*)*), i8* getelementptr inbounds (%"class.std::ios_base::Init", %"class.std::ios_base::Init"* @_ZStL8__ioinit, i32 0, i32 0), i8* @__dso_handle) #3
  ret void
}

declare dso_local void @_ZNSt8ios_base4InitC1Ev(%"class.std::ios_base::Init"*) unnamed_addr #1

; Function Attrs: nounwind
declare dso_local void @_ZNSt8ios_base4InitD1Ev(%"class.std::ios_base::Init"*) unnamed_addr #2

; Function Attrs: nounwind
declare dso_local i32 @__cxa_atexit(void (i8*)*, i8*, i8*) #3

; Function Attrs: noinline norecurse uwtable
define dso_local i32 @main() #4 {
  %1 = alloca i32, align 4
  %2 = alloca i32, align 4
  %3 = alloca i32, align 4
  %4 = alloca i32, align 4
  %5 = alloca i32, align 4
  %6 = alloca i32, align 4
  %7 = alloca i32, align 4
  %8 = alloca i32, align 4
  store i32 0, i32* %1, align 4
  %9 = call dereferenceable(280) %"class.std::basic_istream"* @_ZNSirsERi(%"class.std::basic_istream"* @_ZSt3cin, i32* dereferenceable(4) %2)
  store i32 0, i32* %8, align 4
  %10 = load i32, i32* %2, align 4
  %11 = icmp sle i32 10000, %10
  br i1 %11, label %12, label %67

12:                                               ; preds = %0
  %13 = load i32, i32* %2, align 4
  %14 = sdiv i32 %13, 10000
  store i32 %14, i32* %3, align 4
  %15 = load i32, i32* %2, align 4
  %16 = load i32, i32* %3, align 4
  %17 = mul nsw i32 10000, %16
  %18 = sub nsw i32 %15, %17
  %19 = sdiv i32 %18, 1000
  store i32 %19, i32* %4, align 4
  %20 = load i32, i32* %2, align 4
  %21 = load i32, i32* %3, align 4
  %22 = mul nsw i32 10000, %21
  %23 = sub nsw i32 %20, %22
  %24 = load i32, i32* %4, align 4
  %25 = mul nsw i32 1000, %24
  %26 = sub nsw i32 %23, %25
  %27 = sdiv i32 %26, 100
  store i32 %27, i32* %5, align 4
  %28 = load i32, i32* %2, align 4
  %29 = load i32, i32* %3, align 4
  %30 = mul nsw i32 10000, %29
  %31 = sub nsw i32 %28, %30
  %32 = load i32, i32* %4, align 4
  %33 = mul nsw i32 1000, %32
  %34 = sub nsw i32 %31, %33
  %35 = load i32, i32* %5, align 4
  %36 = mul nsw i32 100, %35
  %37 = sub nsw i32 %34, %36
  %38 = sdiv i32 %37, 10
  store i32 %38, i32* %6, align 4
  %39 = load i32, i32* %2, align 4
  %40 = load i32, i32* %3, align 4
  %41 = mul nsw i32 10000, %40
  %42 = sub nsw i32 %39, %41
  %43 = load i32, i32* %4, align 4
  %44 = mul nsw i32 1000, %43
  %45 = sub nsw i32 %42, %44
  %46 = load i32, i32* %5, align 4
  %47 = mul nsw i32 100, %46
  %48 = sub nsw i32 %45, %47
  %49 = load i32, i32* %6, align 4
  %50 = mul nsw i32 10, %49
  %51 = sub nsw i32 %48, %50
  store i32 %51, i32* %7, align 4
  %52 = load i32, i32* %7, align 4
  %53 = mul nsw i32 10000, %52
  %54 = load i32, i32* %6, align 4
  %55 = mul nsw i32 1000, %54
  %56 = add nsw i32 %53, %55
  %57 = load i32, i32* %5, align 4
  %58 = mul nsw i32 100, %57
  %59 = add nsw i32 %56, %58
  %60 = load i32, i32* %4, align 4
  %61 = mul nsw i32 10, %60
  %62 = add nsw i32 %59, %61
  %63 = load i32, i32* %3, align 4
  %64 = add nsw i32 %62, %63
  store i32 %64, i32* %8, align 4
  %65 = load i32, i32* %8, align 4
  %66 = call dereferenceable(272) %"class.std::basic_ostream"* @_ZNSolsEi(%"class.std::basic_ostream"* @_ZSt4cout, i32 %65)
  br label %155

67:                                               ; preds = %0
  %68 = load i32, i32* %2, align 4
  %69 = icmp sle i32 1000, %68
  br i1 %69, label %70, label %108

70:                                               ; preds = %67
  %71 = load i32, i32* %2, align 4
  %72 = sdiv i32 %71, 1000
  store i32 %72, i32* %4, align 4
  %73 = load i32, i32* %2, align 4
  %74 = load i32, i32* %4, align 4
  %75 = mul nsw i32 1000, %74
  %76 = sub nsw i32 %73, %75
  %77 = sdiv i32 %76, 100
  store i32 %77, i32* %5, align 4
  %78 = load i32, i32* %2, align 4
  %79 = load i32, i32* %4, align 4
  %80 = mul nsw i32 1000, %79
  %81 = sub nsw i32 %78, %80
  %82 = load i32, i32* %5, align 4
  %83 = mul nsw i32 100, %82
  %84 = sub nsw i32 %81, %83
  %85 = sdiv i32 %84, 10
  store i32 %85, i32* %6, align 4
  %86 = load i32, i32* %2, align 4
  %87 = load i32, i32* %4, align 4
  %88 = mul nsw i32 1000, %87
  %89 = sub nsw i32 %86, %88
  %90 = load i32, i32* %5, align 4
  %91 = mul nsw i32 100, %90
  %92 = sub nsw i32 %89, %91
  %93 = load i32, i32* %6, align 4
  %94 = mul nsw i32 10, %93
  %95 = sub nsw i32 %92, %94
  store i32 %95, i32* %7, align 4
  %96 = load i32, i32* %7, align 4
  %97 = mul nsw i32 1000, %96
  %98 = load i32, i32* %6, align 4
  %99 = mul nsw i32 100, %98
  %100 = add nsw i32 %97, %99
  %101 = load i32, i32* %5, align 4
  %102 = mul nsw i32 10, %101
  %103 = add nsw i32 %100, %102
  %104 = load i32, i32* %4, align 4
  %105 = add nsw i32 %103, %104
  store i32 %105, i32* %8, align 4
  %106 = load i32, i32* %8, align 4
  %107 = call dereferenceable(272) %"class.std::basic_ostream"* @_ZNSolsEi(%"class.std::basic_ostream"* @_ZSt4cout, i32 %106)
  br label %154

108:                                              ; preds = %67
  %109 = load i32, i32* %2, align 4
  %110 = icmp sle i32 100, %109
  br i1 %110, label %111, label %135

111:                                              ; preds = %108
  %112 = load i32, i32* %2, align 4
  %113 = sdiv i32 %112, 100
  store i32 %113, i32* %5, align 4
  %114 = load i32, i32* %2, align 4
  %115 = load i32, i32* %5, align 4
  %116 = mul nsw i32 100, %115
  %117 = sub nsw i32 %114, %116
  %118 = sdiv i32 %117, 10
  store i32 %118, i32* %6, align 4
  %119 = load i32, i32* %2, align 4
  %120 = load i32, i32* %5, align 4
  %121 = mul nsw i32 100, %120
  %122 = sub nsw i32 %119, %121
  %123 = load i32, i32* %6, align 4
  %124 = mul nsw i32 10, %123
  %125 = sub nsw i32 %122, %124
  store i32 %125, i32* %7, align 4
  %126 = load i32, i32* %7, align 4
  %127 = mul nsw i32 100, %126
  %128 = load i32, i32* %6, align 4
  %129 = mul nsw i32 10, %128
  %130 = add nsw i32 %127, %129
  %131 = load i32, i32* %5, align 4
  %132 = add nsw i32 %130, %131
  store i32 %132, i32* %8, align 4
  %133 = load i32, i32* %8, align 4
  %134 = call dereferenceable(272) %"class.std::basic_ostream"* @_ZNSolsEi(%"class.std::basic_ostream"* @_ZSt4cout, i32 %133)
  br label %153

135:                                              ; preds = %108
  %136 = load i32, i32* %2, align 4
  %137 = icmp sle i32 10, %136
  br i1 %137, label %138, label %149

138:                                              ; preds = %135
  %139 = load i32, i32* %2, align 4
  %140 = sdiv i32 %139, 10
  store i32 %140, i32* %6, align 4
  %141 = load i32, i32* %6, align 4
  %142 = mul nsw i32 10, %141
  store i32 %142, i32* %7, align 4
  %143 = load i32, i32* %7, align 4
  %144 = mul nsw i32 10, %143
  %145 = load i32, i32* %6, align 4
  %146 = add nsw i32 %144, %145
  store i32 %146, i32* %8, align 4
  %147 = load i32, i32* %8, align 4
  %148 = call dereferenceable(272) %"class.std::basic_ostream"* @_ZNSolsEi(%"class.std::basic_ostream"* @_ZSt4cout, i32 %147)
  br label %152

149:                                              ; preds = %135
  %150 = load i32, i32* %8, align 4
  %151 = call dereferenceable(272) %"class.std::basic_ostream"* @_ZNSolsEi(%"class.std::basic_ostream"* @_ZSt4cout, i32 %150)
  br label %152

152:                                              ; preds = %149, %138
  br label %153

153:                                              ; preds = %152, %111
  br label %154

154:                                              ; preds = %153, %70
  br label %155

155:                                              ; preds = %154, %12
  ret i32 0
}

declare dso_local dereferenceable(280) %"class.std::basic_istream"* @_ZNSirsERi(%"class.std::basic_istream"*, i32* dereferenceable(4)) #1

declare dso_local dereferenceable(272) %"class.std::basic_ostream"* @_ZNSolsEi(%"class.std::basic_ostream"*, i32) #1

; Function Attrs: noinline uwtable
define internal void @_GLOBAL__sub_I_1660.cpp() #0 section ".text.startup" {
  call void @__cxx_global_var_init()
  ret void
}


!llvm.module.flags = !{!0}
!llvm.ident = !{!1}

!0 = !{i32 1, !"wchar_size", i32 4}
!1 = !{!"clang version 10.0.0-4ubuntu1 "}
